; Function Attrs: mustprogress nounwind uwtable
define hidden void @_ZN4cvc58internal8EmptyBagD2Ev(ptr noundef nonnull align 8 captures(none) dereferenceable(8) %0) unnamed_addr #8 align 2 personality ptr @__gxx_personality_v0 {
  %2 = load ptr, ptr %0, align 8, !tbaa !3
  %.not.i = icmp eq ptr %2, null
  br i1 %.not.i, label %_ZNSt10unique_ptrIN4cvc58internal8TypeNodeESt14default_deleteIS2_EED2Ev.exit, label %3

3:                                                ; preds = %1
  %4 = load ptr, ptr %2, align 8, !tbaa !10
  %5 = load i64, ptr %4, align 8
  %6 = and i64 %5, 1152920405095219200
  %.not.i.i.i.i = icmp eq i64 %6, 1152920405095219200
  br i1 %.not.i.i.i.i, label %_ZNKSt14default_deleteIN4cvc58internal8TypeNodeEEclEPS2_.exit.i, label %7, !prof !26

7:                                                ; preds = %3
  %8 = add i64 %5, 1152920405095219200
  %9 = and i64 %8, 1152920405095219200
  %10 = and i64 %5, -1152920405095219201
  %11 = or disjoint i64 %9, %10
  store i64 %11, ptr %4, align 8
  %12 = icmp eq i64 %9, 0
  br i1 %12, label %13, label %_ZNKSt14default_deleteIN4cvc58internal8TypeNodeEEclEPS2_.exit.i, !prof !26

13:                                               ; preds = %7
  invoke void @_ZN4cvc58internal4expr9NodeValue15markForDeletionEv(ptr noundef nonnull align 8 dereferenceable(24) %4)
          to label %_ZNKSt14default_deleteIN4cvc58internal8TypeNodeEEclEPS2_.exit.i unwind label %14

14:                                               ; preds = %13
  %15 = landingpad { ptr, i32 }
          catch ptr null
  %16 = extractvalue { ptr, i32 } %15, 0
  tail call void @__clang_call_terminate(ptr %16) #16
  unreachable

_ZNKSt14default_deleteIN4cvc58internal8TypeNodeEEclEPS2_.exit.i: ; preds = %13, %7, %3
  tail call void @_ZdlPvm(ptr noundef nonnull %2, i64 noundef 8) #15
  br label %_ZNSt10unique_ptrIN4cvc58internal8TypeNodeESt14default_deleteIS2_EED2Ev.exit

_ZNSt10unique_ptrIN4cvc58internal8TypeNodeESt14default_deleteIS2_EED2Ev.exit: ; preds = %1, %_ZNKSt14default_deleteIN4cvc58internal8TypeNodeEEclEPS2_.exit.i
  store ptr null, ptr %0, align 8, !tbaa !3
  ret void
}